; Function Attrs: mustprogress uwtable
define hidden void @_ZN3sls12bv_lookahead8try_flipEP4expr(ptr noundef nonnull align 8 dereferenceable(400) %0, ptr noundef %1) local_unnamed_addr #3 align 2 {
  %3 = getelementptr inbounds nuw i8, ptr %0, i64 32
  %4 = load ptr, ptr %3, align 8, !tbaa !92
  %5 = getelementptr inbounds nuw i8, ptr %4, i64 88
  %6 = load i32, ptr %1, align 4, !tbaa !173
  %7 = load ptr, ptr %5, align 8, !tbaa !194
  %8 = icmp eq ptr %7, null
  br i1 %8, label %_ZNK3sls7context13atom2bool_varEP4expr.exit, label %9

9:                                                ; preds = %2
  %10 = getelementptr inbounds i8, ptr %7, i64 -4
  %11 = load i32, ptr %10, align 4, !tbaa !133
  br label %_ZNK3sls7context13atom2bool_varEP4expr.exit

_ZNK3sls7context13atom2bool_varEP4expr.exit:      ; preds = %2, %9
  %.0.i.i.i = phi i32 [ %11, %9 ], [ 0, %2 ]
  %.not.i.i = icmp ult i32 %6, %.0.i.i.i
  %12 = zext i32 %6 to i64
  %13 = getelementptr inbounds nuw i32, ptr %7, i64 %12
  %.0.i.i = select i1 %.not.i.i, ptr %13, ptr @_ZN3sat13null_bool_varE
  %14 = load i32, ptr %.0.i.i, align 4, !tbaa !133
  %15 = icmp eq i32 %14, 2147483647
  br i1 %15, label %54, label %16

16:                                               ; preds = %_ZNK3sls7context13atom2bool_varEP4expr.exit
  %17 = getelementptr inbounds nuw i8, ptr %4, i64 128
  %18 = getelementptr inbounds nuw i8, ptr %4, i64 144
  %19 = load ptr, ptr %18, align 8, !tbaa !194
  %20 = icmp eq ptr %19, null
  br i1 %20, label %_ZNK3sls7context7is_unitEj.exit.thread.i, label %_ZNK6vectorIjLb0EjE4sizeEv.exit.i.i.i

_ZNK6vectorIjLb0EjE4sizeEv.exit.i.i.i:            ; preds = %16
  %21 = getelementptr inbounds i8, ptr %19, i64 -4
  %22 = load i32, ptr %21, align 4, !tbaa !133
  %23 = icmp ult i32 %14, %22
  br i1 %23, label %24, label %_ZNK3sls7context7is_unitEj.exit.thread.i

24:                                               ; preds = %_ZNK6vectorIjLb0EjE4sizeEv.exit.i.i.i
  %25 = zext i32 %14 to i64
  %26 = getelementptr inbounds nuw i32, ptr %19, i64 %25
  %27 = load i32, ptr %26, align 4, !tbaa !133
  %28 = load i32, ptr %17, align 8, !tbaa !200
  %29 = icmp ult i32 %27, %28
  br i1 %29, label %_ZNK3sls7context7is_unitEj.exit.i, label %_ZNK3sls7context7is_unitEj.exit.thread.i

_ZNK3sls7context7is_unitEj.exit.i:                ; preds = %24
  %30 = getelementptr inbounds nuw i8, ptr %4, i64 136
  %31 = load ptr, ptr %30, align 8, !tbaa !194
  %32 = zext i32 %27 to i64
  %33 = getelementptr inbounds nuw i32, ptr %31, i64 %32
  %34 = load i32, ptr %33, align 4, !tbaa !133
  %35 = icmp eq i32 %34, %14
  br i1 %35, label %_ZN3sls12bv_lookahead14lookahead_flipEj.exit, label %_ZNK3sls7context7is_unitEj.exit.thread.i

_ZNK3sls7context7is_unitEj.exit.thread.i:         ; preds = %_ZNK3sls7context7is_unitEj.exit.i, %24, %_ZNK6vectorIjLb0EjE4sizeEv.exit.i.i.i, %16
  %36 = getelementptr inbounds nuw i8, ptr %4, i64 80
  %37 = load ptr, ptr %36, align 8, !tbaa !132
  %38 = icmp eq ptr %37, null
  br i1 %38, label %_ZN3sls7context4atomEj.exit.i, label %_ZNK6vectorIP4exprLb0EjE3getEjRKS1_.exit.i.i.i

_ZNK6vectorIP4exprLb0EjE3getEjRKS1_.exit.i.i.i:   ; preds = %_ZNK3sls7context7is_unitEj.exit.thread.i
  %39 = getelementptr inbounds i8, ptr %37, i64 -4
  %40 = load i32, ptr %39, align 4, !tbaa !133
  %.not.i.i.i.i = icmp ult i32 %14, %40
  br i1 %.not.i.i.i.i, label %_ZNK6vectorIP4exprLb0EjE3getEjRKS1_.exit.then.i.i.i, label %_ZN3sls7context4atomEj.exit.i

_ZNK6vectorIP4exprLb0EjE3getEjRKS1_.exit.then.i.i.i: ; preds = %_ZNK6vectorIP4exprLb0EjE3getEjRKS1_.exit.i.i.i
  %41 = zext i32 %14 to i64
  %42 = getelementptr inbounds nuw ptr, ptr %37, i64 %41
  %.then.val.i.i.i = load ptr, ptr %42, align 8, !tbaa !134
  br label %_ZN3sls7context4atomEj.exit.i

_ZN3sls7context4atomEj.exit.i:                    ; preds = %_ZNK6vectorIP4exprLb0EjE3getEjRKS1_.exit.then.i.i.i, %_ZNK6vectorIP4exprLb0EjE3getEjRKS1_.exit.i.i.i, %_ZNK3sls7context7is_unitEj.exit.thread.i
  %43 = phi ptr [ %.then.val.i.i.i, %_ZNK6vectorIP4exprLb0EjE3getEjRKS1_.exit.then.i.i.i ], [ null, %_ZNK6vectorIP4exprLb0EjE3getEjRKS1_.exit.i.i.i ], [ null, %_ZNK3sls7context7is_unitEj.exit.thread.i ]
  %44 = getelementptr inbounds nuw i8, ptr %0, i64 200
  %45 = tail call noundef double @_ZN3sls12bv_lookahead16lookahead_updateEP4exprRKNS_5bvectE(ptr noundef nonnull align 8 dereferenceable(400) %0, ptr noundef %43, ptr noundef nonnull align 8 dereferenceable(20) %44)
  br label %_ZN3sls12bv_lookahead14lookahead_flipEj.exit

_ZN3sls12bv_lookahead14lookahead_flipEj.exit:     ; preds = %_ZNK3sls7context7is_unitEj.exit.i, %_ZN3sls7context4atomEj.exit.i
  %.0.i = phi double [ %45, %_ZN3sls7context4atomEj.exit.i ], [ -1.000000e+02, %_ZNK3sls7context7is_unitEj.exit.i ]
  %46 = getelementptr inbounds nuw i8, ptr %0, i64 152
  %47 = load i32, ptr %46, align 8, !tbaa !201
  %48 = add i32 %47, 1
  store i32 %48, ptr %46, align 8, !tbaa !201
  %49 = getelementptr inbounds nuw i8, ptr %0, i64 272
  %50 = load double, ptr %49, align 8, !tbaa !143
  %51 = fcmp ogt double %.0.i, %50
  br i1 %51, label %52, label %54

52:                                               ; preds = %_ZN3sls12bv_lookahead14lookahead_flipEj.exit
  store double %.0.i, ptr %49, align 8, !tbaa !143
  %53 = getelementptr inbounds nuw i8, ptr %0, i64 312
  store ptr %1, ptr %53, align 8, !tbaa !141
  br label %54

54:                                               ; preds = %_ZN3sls12bv_lookahead14lookahead_flipEj.exit, %52, %_ZNK3sls7context13atom2bool_varEP4expr.exit
  ret void
}